target datalayout = "e-m:e-p270:32:32-p271:32:32-p272:64:64-i64:64-i128:128-f80:128-n8:16:32:64-S128"
target triple = "x86_64-pc-linux-gnu"

%struct.PaUtilBufferProcessor = type { i64, i64, i32, i32, i32, i32, i64, i32, i32, i32, i32, ptr, ptr, i32, i32, i32, i32, ptr, ptr, i64, i64, ptr, ptr, i64, ptr, ptr, i64, ptr, i64, i32, [2 x i64], [2 x ptr], i32, [2 x i64], [2 x ptr], %struct.PaUtilTriangularDitherGenerator, double, ptr, ptr }
%struct.PaUtilTriangularDitherGenerator = type { i32, i32, i32 }
%struct.PaUtilChannelDescriptor = type { ptr, i32 }
%struct.PaStreamCallbackTimeInfo = type { double, double, double }

; Function Attrs: nounwind uwtable
define internal i64 @AdaptingInputOnlyProcess(ptr noundef %0, ptr noundef %1, ptr noundef %2, i64 noundef %3) #0 {
  %5 = alloca ptr, align 8
  %6 = alloca ptr, align 8
  %7 = alloca ptr, align 8
  %8 = alloca i64, align 8
  %9 = alloca ptr, align 8
  %10 = alloca ptr, align 8
  %11 = alloca ptr, align 8
  %12 = alloca i32, align 4
  %13 = alloca i32, align 4
  %14 = alloca i32, align 4
  %15 = alloca i64, align 8
  %16 = alloca i64, align 8
  %17 = alloca i64, align 8
  store ptr %0, ptr %5, align 8
  store ptr %1, ptr %6, align 8
  store ptr %2, ptr %7, align 8
  store i64 %3, ptr %8, align 8
  %18 = load i64, ptr %8, align 8
  store i64 %18, ptr %16, align 8
  store i64 0, ptr %17, align 8
  store ptr null, ptr %10, align 8
  br label %19

19:                                               ; preds = %253, %4
  %20 = load ptr, ptr %5, align 8
  %21 = getelementptr inbounds nuw %struct.PaUtilBufferProcessor, ptr %20, i32 0, i32 23
  %22 = load i64, ptr %21, align 8
  %23 = load i64, ptr %16, align 8
  %24 = add i64 %22, %23
  %25 = load ptr, ptr %5, align 8
  %26 = getelementptr inbounds nuw %struct.PaUtilBufferProcessor, ptr %25, i32 0, i32 0
  %27 = load i64, ptr %26, align 8
  %28 = icmp ugt i64 %24, %27
  br i1 %28, label %29, label %37

29:                                               ; preds = %19
  %30 = load ptr, ptr %5, align 8
  %31 = getelementptr inbounds nuw %struct.PaUtilBufferProcessor, ptr %30, i32 0, i32 0
  %32 = load i64, ptr %31, align 8
  %33 = load ptr, ptr %5, align 8
  %34 = getelementptr inbounds nuw %struct.PaUtilBufferProcessor, ptr %33, i32 0, i32 23
  %35 = load i64, ptr %34, align 8
  %36 = sub i64 %32, %35
  br label %39

37:                                               ; preds = %19
  %38 = load i64, ptr %16, align 8
  br label %39

39:                                               ; preds = %37, %29
  %40 = phi i64 [ %36, %29 ], [ %38, %37 ]
  store i64 %40, ptr %15, align 8
  %41 = load ptr, ptr %5, align 8
  %42 = getelementptr inbounds nuw %struct.PaUtilBufferProcessor, ptr %41, i32 0, i32 10
  %43 = load i32, ptr %42, align 4
  %44 = icmp ne i32 %43, 0
  br i1 %44, label %45, label %71

45:                                               ; preds = %39
  %46 = load ptr, ptr %5, align 8
  %47 = getelementptr inbounds nuw %struct.PaUtilBufferProcessor, ptr %46, i32 0, i32 21
  %48 = load ptr, ptr %47, align 8
  %49 = load ptr, ptr %5, align 8
  %50 = getelementptr inbounds nuw %struct.PaUtilBufferProcessor, ptr %49, i32 0, i32 9
  %51 = load i32, ptr %50, align 8
  %52 = load ptr, ptr %5, align 8
  %53 = getelementptr inbounds nuw %struct.PaUtilBufferProcessor, ptr %52, i32 0, i32 7
  %54 = load i32, ptr %53, align 8
  %55 = mul i32 %51, %54
  %56 = zext i32 %55 to i64
  %57 = load ptr, ptr %5, align 8
  %58 = getelementptr inbounds nuw %struct.PaUtilBufferProcessor, ptr %57, i32 0, i32 23
  %59 = load i64, ptr %58, align 8
  %60 = mul i64 %56, %59
  %61 = getelementptr inbounds i8, ptr %48, i64 %60
  store ptr %61, ptr %11, align 8
  %62 = load ptr, ptr %5, align 8
  %63 = getelementptr inbounds nuw %struct.PaUtilBufferProcessor, ptr %62, i32 0, i32 7
  %64 = load i32, ptr %63, align 8
  store i32 %64, ptr %12, align 4
  %65 = load ptr, ptr %5, align 8
  %66 = getelementptr inbounds nuw %struct.PaUtilBufferProcessor, ptr %65, i32 0, i32 9
  %67 = load i32, ptr %66, align 8
  store i32 %67, ptr %13, align 4
  %68 = load ptr, ptr %5, align 8
  %69 = getelementptr inbounds nuw %struct.PaUtilBufferProcessor, ptr %68, i32 0, i32 21
  %70 = load ptr, ptr %69, align 8
  store ptr %70, ptr %9, align 8
  br label %127

71:                                               ; preds = %39
  %72 = load ptr, ptr %5, align 8
  %73 = getelementptr inbounds nuw %struct.PaUtilBufferProcessor, ptr %72, i32 0, i32 21
  %74 = load ptr, ptr %73, align 8
  %75 = load ptr, ptr %5, align 8
  %76 = getelementptr inbounds nuw %struct.PaUtilBufferProcessor, ptr %75, i32 0, i32 9
  %77 = load i32, ptr %76, align 8
  %78 = zext i32 %77 to i64
  %79 = load ptr, ptr %5, align 8
  %80 = getelementptr inbounds nuw %struct.PaUtilBufferProcessor, ptr %79, i32 0, i32 23
  %81 = load i64, ptr %80, align 8
  %82 = mul i64 %78, %81
  %83 = getelementptr inbounds i8, ptr %74, i64 %82
  store ptr %83, ptr %11, align 8
  store i32 1, ptr %12, align 4
  %84 = load ptr, ptr %5, align 8
  %85 = getelementptr inbounds nuw %struct.PaUtilBufferProcessor, ptr %84, i32 0, i32 0
  %86 = load i64, ptr %85, align 8
  %87 = load ptr, ptr %5, align 8
  %88 = getelementptr inbounds nuw %struct.PaUtilBufferProcessor, ptr %87, i32 0, i32 9
  %89 = load i32, ptr %88, align 8
  %90 = zext i32 %89 to i64
  %91 = mul i64 %86, %90
  %92 = trunc i64 %91 to i32
  store i32 %92, ptr %13, align 4
  store i32 0, ptr %14, align 4
  br label %93

93:                                               ; preds = %120, %71
  %94 = load i32, ptr %14, align 4
  %95 = load ptr, ptr %5, align 8
  %96 = getelementptr inbounds nuw %struct.PaUtilBufferProcessor, ptr %95, i32 0, i32 7
  %97 = load i32, ptr %96, align 8
  %98 = icmp ult i32 %94, %97
  br i1 %98, label %99, label %123

99:                                               ; preds = %93
  %100 = load ptr, ptr %5, align 8
  %101 = getelementptr inbounds nuw %struct.PaUtilBufferProcessor, ptr %100, i32 0, i32 21
  %102 = load ptr, ptr %101, align 8
  %103 = load i32, ptr %14, align 4
  %104 = load ptr, ptr %5, align 8
  %105 = getelementptr inbounds nuw %struct.PaUtilBufferProcessor, ptr %104, i32 0, i32 9
  %106 = load i32, ptr %105, align 8
  %107 = mul i32 %103, %106
  %108 = zext i32 %107 to i64
  %109 = load ptr, ptr %5, align 8
  %110 = getelementptr inbounds nuw %struct.PaUtilBufferProcessor, ptr %109, i32 0, i32 0
  %111 = load i64, ptr %110, align 8
  %112 = mul i64 %108, %111
  %113 = getelementptr inbounds i8, ptr %102, i64 %112
  %114 = load ptr, ptr %5, align 8
  %115 = getelementptr inbounds nuw %struct.PaUtilBufferProcessor, ptr %114, i32 0, i32 22
  %116 = load ptr, ptr %115, align 8
  %117 = load i32, ptr %14, align 4
  %118 = zext i32 %117 to i64
  %119 = getelementptr inbounds ptr, ptr %116, i64 %118
  store ptr %113, ptr %119, align 8
  br label %120

120:                                              ; preds = %99
  %121 = load i32, ptr %14, align 4
  %122 = add i32 %121, 1
  store i32 %122, ptr %14, align 4
  br label %93, !llvm.loop !29

123:                                              ; preds = %93
  %124 = load ptr, ptr %5, align 8
  %125 = getelementptr inbounds nuw %struct.PaUtilBufferProcessor, ptr %124, i32 0, i32 22
  %126 = load ptr, ptr %125, align 8
  store ptr %126, ptr %9, align 8
  br label %127

127:                                              ; preds = %123, %45
  store i32 0, ptr %14, align 4
  br label %128

128:                                              ; preds = %186, %127
  %129 = load i32, ptr %14, align 4
  %130 = load ptr, ptr %5, align 8
  %131 = getelementptr inbounds nuw %struct.PaUtilBufferProcessor, ptr %130, i32 0, i32 7
  %132 = load i32, ptr %131, align 8
  %133 = icmp ult i32 %129, %132
  br i1 %133, label %134, label %189

134:                                              ; preds = %128
  %135 = load ptr, ptr %5, align 8
  %136 = getelementptr inbounds nuw %struct.PaUtilBufferProcessor, ptr %135, i32 0, i32 11
  %137 = load ptr, ptr %136, align 8
  %138 = load ptr, ptr %11, align 8
  %139 = load i32, ptr %12, align 4
  %140 = load ptr, ptr %7, align 8
  %141 = load i32, ptr %14, align 4
  %142 = zext i32 %141 to i64
  %143 = getelementptr inbounds %struct.PaUtilChannelDescriptor, ptr %140, i64 %142
  %144 = getelementptr inbounds nuw %struct.PaUtilChannelDescriptor, ptr %143, i32 0, i32 0
  %145 = load ptr, ptr %144, align 8
  %146 = load ptr, ptr %7, align 8
  %147 = load i32, ptr %14, align 4
  %148 = zext i32 %147 to i64
  %149 = getelementptr inbounds %struct.PaUtilChannelDescriptor, ptr %146, i64 %148
  %150 = getelementptr inbounds nuw %struct.PaUtilChannelDescriptor, ptr %149, i32 0, i32 1
  %151 = load i32, ptr %150, align 8
  %152 = load i64, ptr %15, align 8
  %153 = trunc i64 %152 to i32
  %154 = load ptr, ptr %5, align 8
  %155 = getelementptr inbounds nuw %struct.PaUtilBufferProcessor, ptr %154, i32 0, i32 35
  call void %137(ptr noundef %138, i32 noundef %139, ptr noundef %145, i32 noundef %151, i32 noundef %153, ptr noundef %155)
  %156 = load i32, ptr %13, align 4
  %157 = load ptr, ptr %11, align 8
  %158 = zext i32 %156 to i64
  %159 = getelementptr inbounds i8, ptr %157, i64 %158
  store ptr %159, ptr %11, align 8
  %160 = load ptr, ptr %7, align 8
  %161 = load i32, ptr %14, align 4
  %162 = zext i32 %161 to i64
  %163 = getelementptr inbounds %struct.PaUtilChannelDescriptor, ptr %160, i64 %162
  %164 = getelementptr inbounds nuw %struct.PaUtilChannelDescriptor, ptr %163, i32 0, i32 0
  %165 = load ptr, ptr %164, align 8
  %166 = load i64, ptr %15, align 8
  %167 = load ptr, ptr %7, align 8
  %168 = load i32, ptr %14, align 4
  %169 = zext i32 %168 to i64
  %170 = getelementptr inbounds %struct.PaUtilChannelDescriptor, ptr %167, i64 %169
  %171 = getelementptr inbounds nuw %struct.PaUtilChannelDescriptor, ptr %170, i32 0, i32 1
  %172 = load i32, ptr %171, align 8
  %173 = zext i32 %172 to i64
  %174 = mul i64 %166, %173
  %175 = load ptr, ptr %5, align 8
  %176 = getelementptr inbounds nuw %struct.PaUtilBufferProcessor, ptr %175, i32 0, i32 8
  %177 = load i32, ptr %176, align 4
  %178 = zext i32 %177 to i64
  %179 = mul i64 %174, %178
  %180 = getelementptr inbounds i8, ptr %165, i64 %179
  %181 = load ptr, ptr %7, align 8
  %182 = load i32, ptr %14, align 4
  %183 = zext i32 %182 to i64
  %184 = getelementptr inbounds %struct.PaUtilChannelDescriptor, ptr %181, i64 %183
  %185 = getelementptr inbounds nuw %struct.PaUtilChannelDescriptor, ptr %184, i32 0, i32 0
  store ptr %180, ptr %185, align 8
  br label %186

186:                                              ; preds = %134
  %187 = load i32, ptr %14, align 4
  %188 = add i32 %187, 1
  store i32 %188, ptr %14, align 4
  br label %128, !llvm.loop !30

189:                                              ; preds = %128
  %190 = load i64, ptr %15, align 8
  %191 = load ptr, ptr %5, align 8
  %192 = getelementptr inbounds nuw %struct.PaUtilBufferProcessor, ptr %191, i32 0, i32 23
  %193 = load i64, ptr %192, align 8
  %194 = add i64 %193, %190
  store i64 %194, ptr %192, align 8
  %195 = load ptr, ptr %5, align 8
  %196 = getelementptr inbounds nuw %struct.PaUtilBufferProcessor, ptr %195, i32 0, i32 23
  %197 = load i64, ptr %196, align 8
  %198 = load ptr, ptr %5, align 8
  %199 = getelementptr inbounds nuw %struct.PaUtilBufferProcessor, ptr %198, i32 0, i32 0
  %200 = load i64, ptr %199, align 8
  %201 = icmp eq i64 %197, %200
  br i1 %201, label %202, label %246

202:                                              ; preds = %189
  %203 = load ptr, ptr %6, align 8
  %204 = load i32, ptr %203, align 4
  %205 = icmp eq i32 %204, 0
  br i1 %205, label %206, label %243

206:                                              ; preds = %202
  %207 = load ptr, ptr %5, align 8
  %208 = getelementptr inbounds nuw %struct.PaUtilBufferProcessor, ptr %207, i32 0, i32 27
  %209 = load ptr, ptr %208, align 8
  %210 = getelementptr inbounds nuw %struct.PaStreamCallbackTimeInfo, ptr %209, i32 0, i32 2
  store double 0.000000e+00, ptr %210, align 8
  %211 = load ptr, ptr %5, align 8
  %212 = getelementptr inbounds nuw %struct.PaUtilBufferProcessor, ptr %211, i32 0, i32 37
  %213 = load ptr, ptr %212, align 8
  %214 = load ptr, ptr %9, align 8
  %215 = load ptr, ptr %10, align 8
  %216 = load ptr, ptr %5, align 8
  %217 = getelementptr inbounds nuw %struct.PaUtilBufferProcessor, ptr %216, i32 0, i32 0
  %218 = load i64, ptr %217, align 8
  %219 = load ptr, ptr %5, align 8
  %220 = getelementptr inbounds nuw %struct.PaUtilBufferProcessor, ptr %219, i32 0, i32 27
  %221 = load ptr, ptr %220, align 8
  %222 = load ptr, ptr %5, align 8
  %223 = getelementptr inbounds nuw %struct.PaUtilBufferProcessor, ptr %222, i32 0, i32 28
  %224 = load i64, ptr %223, align 8
  %225 = load ptr, ptr %5, align 8
  %226 = getelementptr inbounds nuw %struct.PaUtilBufferProcessor, ptr %225, i32 0, i32 38
  %227 = load ptr, ptr %226, align 8
  %228 = call i32 %213(ptr noundef %214, ptr noundef %215, i64 noundef %218, ptr noundef %221, i64 noundef %224, ptr noundef %227)
  %229 = load ptr, ptr %6, align 8
  store i32 %228, ptr %229, align 4
  %230 = load ptr, ptr %5, align 8
  %231 = getelementptr inbounds nuw %struct.PaUtilBufferProcessor, ptr %230, i32 0, i32 0
  %232 = load i64, ptr %231, align 8
  %233 = uitofp i64 %232 to double
  %234 = load ptr, ptr %5, align 8
  %235 = getelementptr inbounds nuw %struct.PaUtilBufferProcessor, ptr %234, i32 0, i32 36
  %236 = load double, ptr %235, align 8
  %237 = load ptr, ptr %5, align 8
  %238 = getelementptr inbounds nuw %struct.PaUtilBufferProcessor, ptr %237, i32 0, i32 27
  %239 = load ptr, ptr %238, align 8
  %240 = getelementptr inbounds nuw %struct.PaStreamCallbackTimeInfo, ptr %239, i32 0, i32 0
  %241 = load double, ptr %240, align 8
  %242 = call double @llvm.fmuladd.f64(double %233, double %236, double %241)
  store double %242, ptr %240, align 8
  br label %243

243:                                              ; preds = %206, %202
  %244 = load ptr, ptr %5, align 8
  %245 = getelementptr inbounds nuw %struct.PaUtilBufferProcessor, ptr %244, i32 0, i32 23
  store i64 0, ptr %245, align 8
  br label %246

246:                                              ; preds = %243, %189
  %247 = load i64, ptr %15, align 8
  %248 = load i64, ptr %17, align 8
  %249 = add i64 %248, %247
  store i64 %249, ptr %17, align 8
  %250 = load i64, ptr %15, align 8
  %251 = load i64, ptr %16, align 8
  %252 = sub i64 %251, %250
  store i64 %252, ptr %16, align 8
  br label %253

253:                                              ; preds = %246
  %254 = load i64, ptr %16, align 8
  %255 = icmp ugt i64 %254, 0
  br i1 %255, label %19, label %256, !llvm.loop !31

256:                                              ; preds = %253
  %257 = load i64, ptr %17, align 8
  ret i64 %257
}