; Function Attrs: nounwind uwtable
define internal fastcc i64 @AdaptingInputOnlyProcess(ptr noundef %0, ptr nocapture noundef %1, ptr nocapture noundef %2, i64 noundef %3) unnamed_addr #0 {
  %5 = getelementptr inbounds nuw i8, ptr %0, i64 136
  %6 = getelementptr inbounds nuw i8, ptr %0, i64 52
  %7 = getelementptr inbounds nuw i8, ptr %0, i64 40
  %8 = getelementptr inbounds nuw i8, ptr %0, i64 120
  %9 = getelementptr inbounds nuw i8, ptr %0, i64 48
  %10 = getelementptr inbounds nuw i8, ptr %0, i64 128
  %11 = getelementptr inbounds nuw i8, ptr %0, i64 56
  %12 = getelementptr inbounds nuw i8, ptr %0, i64 264
  %13 = getelementptr inbounds nuw i8, ptr %0, i64 44
  %14 = getelementptr inbounds nuw i8, ptr %0, i64 168
  %15 = getelementptr inbounds nuw i8, ptr %0, i64 288
  %16 = getelementptr inbounds nuw i8, ptr %0, i64 176
  %17 = getelementptr inbounds nuw i8, ptr %0, i64 296
  %18 = getelementptr inbounds nuw i8, ptr %0, i64 280
  %.pre = load i64, ptr %5, align 8
  br label %19

19:                                               ; preds = %96, %4
  %20 = phi i64 [ %.pre, %4 ], [ %97, %96 ]
  %.075 = phi i64 [ %3, %4 ], [ %99, %96 ]
  %.0 = phi i64 [ 0, %4 ], [ %98, %96 ]
  %21 = add i64 %20, %.075
  %22 = load i64, ptr %0, align 8
  %23 = icmp ugt i64 %21, %22
  %24 = sub i64 %22, %20
  %25 = select i1 %23, i64 %24, i64 %.075
  %26 = load i32, ptr %6, align 4
  %.not = icmp eq i32 %26, 0
  %27 = load ptr, ptr %8, align 8
  %28 = load i32, ptr %9, align 8
  br i1 %.not, label %32, label %29

29:                                               ; preds = %19
  %30 = load i32, ptr %7, align 8
  %31 = mul i32 %30, %28
  br label %51

32:                                               ; preds = %19
  %33 = trunc i64 %22 to i32
  %34 = mul i32 %28, %33
  %35 = load i32, ptr %7, align 8
  %.not91 = icmp eq i32 %35, 0
  br i1 %.not91, label %._crit_edge, label %.lr.ph

.lr.ph:                                           ; preds = %32, %.lr.ph
  %indvars.iv = phi i64 [ %indvars.iv.next, %.lr.ph ], [ 0, %32 ]
  %36 = load ptr, ptr %8, align 8
  %37 = load i32, ptr %9, align 8
  %38 = trunc nuw i64 %indvars.iv to i32
  %39 = mul i32 %37, %38
  %40 = zext i32 %39 to i64
  %41 = load i64, ptr %0, align 8
  %42 = mul i64 %41, %40
  %43 = getelementptr inbounds i8, ptr %36, i64 %42
  %44 = load ptr, ptr %10, align 8
  %45 = getelementptr inbounds ptr, ptr %44, i64 %indvars.iv
  store ptr %43, ptr %45, align 8
  %indvars.iv.next = add nuw nsw i64 %indvars.iv, 1
  %46 = load i32, ptr %7, align 8
  %47 = zext i32 %46 to i64
  %48 = icmp ult i64 %indvars.iv.next, %47
  br i1 %48, label %.lr.ph, label %._crit_edge, !llvm.loop !29

._crit_edge:                                      ; preds = %.lr.ph, %32
  %49 = phi i32 [ 0, %32 ], [ %46, %.lr.ph ]
  %50 = load ptr, ptr %10, align 8
  br label %51

51:                                               ; preds = %._crit_edge, %29
  %52 = phi i32 [ %30, %29 ], [ %49, %._crit_edge ]
  %.pn98.in = phi i32 [ %31, %29 ], [ %28, %._crit_edge ]
  %.079 = phi i32 [ %30, %29 ], [ 1, %._crit_edge ]
  %.078 = phi i32 [ %28, %29 ], [ %34, %._crit_edge ]
  %.076 = phi ptr [ %27, %29 ], [ %50, %._crit_edge ]
  %.not92 = icmp eq i32 %52, 0
  br i1 %.not92, label %._crit_edge90, label %.lr.ph89

.lr.ph89:                                         ; preds = %51
  %.pn98 = zext i32 %.pn98.in to i64
  %.pn = mul i64 %20, %.pn98
  %.080 = getelementptr inbounds i8, ptr %27, i64 %.pn
  %53 = trunc i64 %25 to i32
  %54 = zext i32 %.078 to i64
  br label %55

55:                                               ; preds = %.lr.ph89, %55
  %indvars.iv94 = phi i64 [ 0, %.lr.ph89 ], [ %indvars.iv.next95, %55 ]
  %.18186 = phi ptr [ %.080, %.lr.ph89 ], [ %61, %55 ]
  %56 = load ptr, ptr %11, align 8
  %57 = getelementptr inbounds %struct.PaUtilChannelDescriptor, ptr %2, i64 %indvars.iv94
  %58 = load ptr, ptr %57, align 8
  %59 = getelementptr inbounds nuw i8, ptr %57, i64 8
  %60 = load i32, ptr %59, align 8
  tail call void %56(ptr noundef %.18186, i32 noundef %.079, ptr noundef %58, i32 noundef %60, i32 noundef %53, ptr noundef nonnull %12) #11
  %61 = getelementptr inbounds i8, ptr %.18186, i64 %54
  %62 = load ptr, ptr %57, align 8
  %63 = load i32, ptr %59, align 8
  %64 = zext i32 %63 to i64
  %65 = mul i64 %25, %64
  %66 = load i32, ptr %13, align 4
  %67 = zext i32 %66 to i64
  %68 = mul i64 %65, %67
  %69 = getelementptr inbounds i8, ptr %62, i64 %68
  store ptr %69, ptr %57, align 8
  %indvars.iv.next95 = add nuw nsw i64 %indvars.iv94, 1
  %70 = load i32, ptr %7, align 8
  %71 = zext i32 %70 to i64
  %72 = icmp ult i64 %indvars.iv.next95, %71
  br i1 %72, label %55, label %._crit_edge90, !llvm.loop !30

._crit_edge90:                                    ; preds = %55, %51
  %73 = load i64, ptr %5, align 8
  %74 = add i64 %73, %25
  store i64 %74, ptr %5, align 8
  %75 = load i64, ptr %0, align 8
  %76 = icmp eq i64 %74, %75
  br i1 %76, label %77, label %96

77:                                               ; preds = %._crit_edge90
  %78 = load i32, ptr %1, align 4
  %79 = icmp eq i32 %78, 0
  br i1 %79, label %80, label %95

80:                                               ; preds = %77
  %81 = load ptr, ptr %14, align 8
  %82 = getelementptr inbounds nuw i8, ptr %81, i64 16
  store double 0.000000e+00, ptr %82, align 8
  %83 = load ptr, ptr %15, align 8
  %84 = load i64, ptr %0, align 8
  %85 = load ptr, ptr %14, align 8
  %86 = load i64, ptr %16, align 8
  %87 = load ptr, ptr %17, align 8
  %88 = tail call i32 %83(ptr noundef %.076, ptr noundef null, i64 noundef %84, ptr noundef %85, i64 noundef %86, ptr noundef %87) #11
  store i32 %88, ptr %1, align 4
  %89 = load i64, ptr %0, align 8
  %90 = uitofp i64 %89 to double
  %91 = load double, ptr %18, align 8
  %92 = load ptr, ptr %14, align 8
  %93 = load double, ptr %92, align 8
  %94 = tail call double @llvm.fmuladd.f64(double %90, double %91, double %93)
  store double %94, ptr %92, align 8
  br label %95

95:                                               ; preds = %80, %77
  store i64 0, ptr %5, align 8
  br label %96

96:                                               ; preds = %95, %._crit_edge90
  %97 = phi i64 [ 0, %95 ], [ %74, %._crit_edge90 ]
  %98 = add i64 %25, %.0
  %99 = sub i64 %.075, %25
  %.not84 = icmp eq i64 %99, 0
  br i1 %.not84, label %100, label %19, !llvm.loop !31

100:                                              ; preds = %96
  ret i64 %98
}